; Function Attrs: mustprogress uwtable
define hidden void @_ZN3sls7context13ensure_pluginEP4expr(ptr noundef nonnull align 8 dereferenceable(321) %0, ptr noundef %1) local_unnamed_addr #4 align 2 {
  %3 = tail call noundef i32 @_ZNK3sls7context7get_fidEP4expr(ptr noundef nonnull align 8 dereferenceable(321) %0, ptr noundef %1)
  tail call void @_ZN3sls7context13ensure_pluginEi(ptr noundef nonnull align 8 dereferenceable(321) %0, i32 noundef %3)
  %4 = tail call noundef ptr @_ZNK4expr8get_sortEv(ptr noundef nonnull align 4 dereferenceable(16) %1)
  %5 = getelementptr inbounds nuw i8, ptr %4, i64 24
  %6 = load ptr, ptr %5, align 8, !tbaa !131
  %7 = icmp eq ptr %6, null
  br i1 %7, label %_ZNK4decl13get_family_idEv.exit, label %8

8:                                                ; preds = %2
  %9 = load i32, ptr %6, align 8, !tbaa !134
  br label %_ZNK4decl13get_family_idEv.exit

_ZNK4decl13get_family_idEv.exit:                  ; preds = %2, %8
  %10 = phi i32 [ %9, %8 ], [ -1, %2 ]
  tail call void @_ZN3sls7context13ensure_pluginEi(ptr noundef nonnull align 8 dereferenceable(321) %0, i32 noundef %10)
  ret void
}